target datalayout = "e-m:e-p270:32:32-p271:32:32-p272:64:64-i64:64-i128:128-f80:128-n8:16:32:64-S128"
target triple = "x86_64-pc-linux-gnu"

%struct.ThreadList = type { ptr }
%struct.ThreadNode = type { ptr, i16, i32, ptr, i32, i32, %struct.StepRequest, %struct.InvokeRequest, ptr, %struct.CoLocatedEventInfo_, ptr, ptr, i64, ptr }
%struct.StepRequest = type { i32, i32, i8, i8, i8, i32, i32, ptr, ptr, i32, ptr, ptr, ptr, ptr }
%struct.InvokeRequest = type { i8, i8, i8, i8, i32, i8, i8, ptr, ptr, ptr, ptr, i32, ptr, %union.jvalue, ptr }
%union.jvalue = type { i64 }
%struct.CoLocatedEventInfo_ = type { i32, ptr, ptr, i64 }
%struct.BackendGlobalData = type <{ ptr, ptr, i8, i8, i8, i8, i8, i8, i8, i8, i8, [3 x i8], i32, ptr, ptr, ptr, ptr, ptr, ptr, ptr, ptr, ptr, ptr, ptr, ptr, ptr, i32, %struct.jvmtiCapabilities, i8, [3 x i8], %struct.jvmtiEventCallbacks, ptr, ptr, ptr, ptr, ptr, ptr, ptr, i32, [4 x i8], ptr, i64, i32, [4 x i8], ptr, i32, i32, i8, i8, [6 x i8] }>
%struct.jvmtiCapabilities = type { i64, i64 }
%struct.jvmtiEventCallbacks = type { ptr, ptr, ptr, ptr, ptr, ptr, ptr, ptr, ptr, ptr, ptr, ptr, ptr, ptr, ptr, ptr, ptr, ptr, ptr, ptr, ptr, ptr, ptr, ptr, ptr, ptr, ptr, ptr, ptr, ptr, ptr, ptr, ptr, ptr, ptr, ptr, ptr, ptr, ptr }
%struct.jvmtiInterface_1_ = type { ptr, ptr, ptr, ptr, ptr, ptr, ptr, ptr, ptr, ptr, ptr, ptr, ptr, ptr, ptr, ptr, ptr, ptr, ptr, ptr, ptr, ptr, ptr, ptr, ptr, ptr, ptr, ptr, ptr, ptr, ptr, ptr, ptr, ptr, ptr, ptr, ptr, ptr, ptr, ptr, ptr, ptr, ptr, ptr, ptr, ptr, ptr, ptr, ptr, ptr, ptr, ptr, ptr, ptr, ptr, ptr, ptr, ptr, ptr, ptr, ptr, ptr, ptr, ptr, ptr, ptr, ptr, ptr, ptr, ptr, ptr, ptr, ptr, ptr, ptr, ptr, ptr, ptr, ptr, ptr, ptr, ptr, ptr, ptr, ptr, ptr, ptr, ptr, ptr, ptr, ptr, ptr, ptr, ptr, ptr, ptr, ptr, ptr, ptr, ptr, ptr, ptr, ptr, ptr, ptr, ptr, ptr, ptr, ptr, ptr, ptr, ptr, ptr, ptr, ptr, ptr, ptr, ptr, ptr, ptr, ptr, ptr, ptr, ptr, ptr, ptr, ptr, ptr, ptr, ptr, ptr, ptr, ptr, ptr, ptr, ptr, ptr, ptr, ptr, ptr, ptr, ptr, ptr, ptr, ptr, ptr, ptr, ptr, ptr, ptr, ptr, ptr, ptr, ptr, ptr, ptr }

@runningThreads = internal global %struct.ThreadList zeroinitializer, align 8
@otherThreads = internal global %struct.ThreadList zeroinitializer, align 8
@runningVThreads = internal global %struct.ThreadList zeroinitializer, align 8
@stderr = external global ptr, align 8
@.str.1 = private unnamed_addr constant [17 x i8] c"JDWP exit error \00", align 1
@.str.2 = private unnamed_addr constant [2 x i8] c"\0A\00", align 1
@.str.3 = private unnamed_addr constant [19 x i8] c"%s(%d): %s [%s:%d]\00", align 1
@.str.5 = private unnamed_addr constant [56 x i8] c"src/jdk.jdwp.agent/share/native/libjdwp/threadControl.c\00", align 1
@gdata = external global ptr, align 8
@.str.7 = private unnamed_addr constant [5 x i8] c"%s()\00", align 1
@.str.13 = private unnamed_addr constant [6 x i8] c"JVMTI\00", align 1
@.str.47 = private unnamed_addr constant [49 x i8] c"!nonTlsSearch(getEnv(), &runningThreads, thread)\00", align 1
@.str.48 = private unnamed_addr constant [50 x i8] c"!nonTlsSearch(getEnv(), &runningVThreads, thread)\00", align 1
@.str.49 = private unnamed_addr constant [22 x i8] c"GetThreadLocalStorage\00", align 1
@.str.50 = private unnamed_addr constant [32 x i8] c"cannot get thread local storage\00", align 1

; Function Attrs: nounwind uwtable
define internal ptr @getThreadLocalStorage(ptr noundef %0) #0 {
  %2 = alloca ptr, align 8
  %3 = alloca ptr, align 8
  %4 = alloca i32, align 4
  %5 = alloca ptr, align 8
  store ptr %0, ptr %3, align 8
  store ptr null, ptr %5, align 8
  %6 = load ptr, ptr @gdata, align 8
  %7 = getelementptr inbounds %struct.BackendGlobalData, ptr %6, i32 0, i32 38
  %8 = load i32, ptr %7, align 8
  %9 = and i32 %8, 4
  %10 = icmp ne i32 %9, 0
  br i1 %10, label %11, label %12

11:                                               ; preds = %1
  call void @log_message_begin(ptr noundef @.str.13, ptr noundef @.str.5, i32 noundef 179)
  call void (ptr, ...) @log_message_end(ptr noundef @.str.7, ptr noundef @.str.49)
  br label %13

12:                                               ; preds = %1
  br label %13

13:                                               ; preds = %12, %11
  %14 = load ptr, ptr @gdata, align 8
  %15 = getelementptr inbounds %struct.BackendGlobalData, ptr %14, i32 0, i32 0
  %16 = load ptr, ptr %15, align 8
  %17 = load ptr, ptr %16, align 8
  %18 = getelementptr inbounds %struct.jvmtiInterface_1_, ptr %17, i32 0, i32 101
  %19 = load ptr, ptr %18, align 8
  %20 = load ptr, ptr @gdata, align 8
  %21 = getelementptr inbounds %struct.BackendGlobalData, ptr %20, i32 0, i32 0
  %22 = load ptr, ptr %21, align 8
  %23 = load ptr, ptr %3, align 8
  %24 = call i32 %19(ptr noundef %22, ptr noundef %23, ptr noundef %5)
  store i32 %24, ptr %4, align 4
  %25 = load i32, ptr %4, align 4
  %26 = icmp eq i32 %25, 15
  br i1 %26, label %27, label %28

27:                                               ; preds = %13
  store ptr null, ptr %2, align 8
  br label %40

28:                                               ; preds = %13
  %29 = load i32, ptr %4, align 4
  %30 = icmp ne i32 %29, 0
  br i1 %30, label %31, label %37

31:                                               ; preds = %28
  %32 = load ptr, ptr @stderr, align 8
  %33 = load i32, ptr %4, align 4
  %34 = call ptr @jvmtiErrorText(i32 noundef %33)
  %35 = load i32, ptr %4, align 4
  call void (ptr, ptr, ptr, ptr, ...) @print_message(ptr noundef %32, ptr noundef @.str.1, ptr noundef @.str.2, ptr noundef @.str.3, ptr noundef %34, i32 noundef %35, ptr noundef @.str.50, ptr noundef @.str.5, i32 noundef 186)
  %36 = load i32, ptr %4, align 4
  call void @debugInit_exit(i32 noundef %36, ptr noundef @.str.50)
  br label %37

37:                                               ; preds = %31, %28
  br label %38

38:                                               ; preds = %37
  %39 = load ptr, ptr %5, align 8
  store ptr %39, ptr %2, align 8
  br label %40

40:                                               ; preds = %38, %27
  %41 = load ptr, ptr %2, align 8
  ret ptr %41
}

; Function Attrs: nounwind uwtable
define internal ptr @findThread(ptr noundef %0, ptr noundef %1) #0 {
  %3 = alloca ptr, align 8
  %4 = alloca ptr, align 8
  %5 = alloca ptr, align 8
  %6 = alloca ptr, align 8
  store ptr %0, ptr %4, align 8
  store ptr %1, ptr %5, align 8
  %7 = load ptr, ptr %5, align 8
  %8 = call ptr @getThreadLocalStorage(ptr noundef %7)
  store ptr %8, ptr %6, align 8
  %9 = load ptr, ptr %6, align 8
  %10 = icmp eq ptr %9, null
  br i1 %10, label %11, label %91

11:                                               ; preds = %2
  %12 = load ptr, ptr %4, align 8
  %13 = icmp eq ptr %12, null
  br i1 %13, label %17, label %14

14:                                               ; preds = %11
  %15 = load ptr, ptr %4, align 8
  %16 = icmp eq ptr %15, @otherThreads
  br i1 %16, label %17, label %21

17:                                               ; preds = %14, %11
  %18 = call ptr @getEnv()
  %19 = load ptr, ptr %5, align 8
  %20 = call ptr @nonTlsSearch(ptr noundef %18, ptr noundef @otherThreads, ptr noundef %19)
  store ptr %20, ptr %6, align 8
  br label %21

21:                                               ; preds = %17, %14
  %22 = load ptr, ptr @gdata, align 8
  %23 = getelementptr inbounds %struct.BackendGlobalData, ptr %22, i32 0, i32 48
  %24 = load volatile i8, ptr %23, align 1
  %25 = icmp ne i8 %24, 0
  br i1 %25, label %61, label %26

26:                                               ; preds = %21
  br label %27

27:                                               ; preds = %26
  %28 = load ptr, ptr @gdata, align 8
  %29 = icmp ne ptr %28, null
  br i1 %29, label %30, label %42

30:                                               ; preds = %27
  %31 = load ptr, ptr @gdata, align 8
  %32 = getelementptr inbounds %struct.BackendGlobalData, ptr %31, i32 0, i32 3
  %33 = load i8, ptr %32, align 1
  %34 = zext i8 %33 to i32
  %35 = icmp ne i32 %34, 0
  br i1 %35, label %36, label %42

36:                                               ; preds = %30
  %37 = call ptr @getEnv()
  %38 = load ptr, ptr %5, align 8
  %39 = call ptr @nonTlsSearch(ptr noundef %37, ptr noundef @runningThreads, ptr noundef %38)
  %40 = icmp ne ptr %39, null
  br i1 %40, label %41, label %42

41:                                               ; preds = %36
  call void @jdiAssertionFailed(ptr noundef @.str.5, i32 noundef 257, ptr noundef @.str.47)
  br label %42

42:                                               ; preds = %41, %36, %30, %27
  br label %43

43:                                               ; preds = %42
  br label %44

44:                                               ; preds = %43
  %45 = load ptr, ptr @gdata, align 8
  %46 = icmp ne ptr %45, null
  br i1 %46, label %47, label %59

47:                                               ; preds = %44
  %48 = load ptr, ptr @gdata, align 8
  %49 = getelementptr inbounds %struct.BackendGlobalData, ptr %48, i32 0, i32 3
  %50 = load i8, ptr %49, align 1
  %51 = zext i8 %50 to i32
  %52 = icmp ne i32 %51, 0
  br i1 %52, label %53, label %59

53:                                               ; preds = %47
  %54 = call ptr @getEnv()
  %55 = load ptr, ptr %5, align 8
  %56 = call ptr @nonTlsSearch(ptr noundef %54, ptr noundef @runningVThreads, ptr noundef %55)
  %57 = icmp ne ptr %56, null
  br i1 %57, label %58, label %59

58:                                               ; preds = %53
  call void @jdiAssertionFailed(ptr noundef @.str.5, i32 noundef 258, ptr noundef @.str.48)
  br label %59

59:                                               ; preds = %58, %53, %47, %44
  br label %60

60:                                               ; preds = %59
  br label %90

61:                                               ; preds = %21
  %62 = load ptr, ptr %6, align 8
  %63 = icmp eq ptr %62, null
  br i1 %63, label %64, label %89

64:                                               ; preds = %61
  %65 = load ptr, ptr %4, align 8
  %66 = icmp eq ptr %65, null
  br i1 %66, label %70, label %67

67:                                               ; preds = %64
  %68 = load ptr, ptr %4, align 8
  %69 = icmp eq ptr %68, @runningThreads
  br i1 %69, label %70, label %74

70:                                               ; preds = %67, %64
  %71 = call ptr @getEnv()
  %72 = load ptr, ptr %5, align 8
  %73 = call ptr @nonTlsSearch(ptr noundef %71, ptr noundef @runningThreads, ptr noundef %72)
  store ptr %73, ptr %6, align 8
  br label %74

74:                                               ; preds = %70, %67
  %75 = load ptr, ptr %6, align 8
  %76 = icmp eq ptr %75, null
  br i1 %76, label %77, label %88

77:                                               ; preds = %74
  %78 = load ptr, ptr %4, align 8
  %79 = icmp eq ptr %78, null
  br i1 %79, label %83, label %80

80:                                               ; preds = %77
  %81 = load ptr, ptr %4, align 8
  %82 = icmp eq ptr %81, @runningVThreads
  br i1 %82, label %83, label %87

83:                                               ; preds = %80, %77
  %84 = call ptr @getEnv()
  %85 = load ptr, ptr %5, align 8
  %86 = call ptr @nonTlsSearch(ptr noundef %84, ptr noundef @runningVThreads, ptr noundef %85)
  store ptr %86, ptr %6, align 8
  br label %87

87:                                               ; preds = %83, %80
  br label %88

88:                                               ; preds = %87, %74
  br label %89

89:                                               ; preds = %88, %61
  br label %90

90:                                               ; preds = %89, %60
  br label %91

91:                                               ; preds = %90, %2
  %92 = load ptr, ptr %6, align 8
  %93 = icmp ne ptr %92, null
  br i1 %93, label %94, label %104

94:                                               ; preds = %91
  %95 = load ptr, ptr %4, align 8
  %96 = icmp ne ptr %95, null
  br i1 %96, label %97, label %104

97:                                               ; preds = %94
  %98 = load ptr, ptr %6, align 8
  %99 = getelementptr inbounds %struct.ThreadNode, ptr %98, i32 0, i32 13
  %100 = load ptr, ptr %99, align 8
  %101 = load ptr, ptr %4, align 8
  %102 = icmp ne ptr %100, %101
  br i1 %102, label %103, label %104

103:                                              ; preds = %97
  store ptr null, ptr %3, align 8
  br label %106

104:                                              ; preds = %97, %94, %91
  %105 = load ptr, ptr %6, align 8
  store ptr %105, ptr %3, align 8
  br label %106

106:                                              ; preds = %104, %103
  %107 = load ptr, ptr %3, align 8
  ret ptr %107
}