; Function Attrs: nounwind uwtable
define internal fastcc ptr @findThread(ptr noundef readnone %0, ptr noundef %1) unnamed_addr #0 {
  %3 = alloca ptr, align 8
  call void @llvm.lifetime.start.p0(i64 8, ptr nonnull %3)
  store ptr null, ptr %3, align 8
  %4 = load ptr, ptr @gdata, align 8
  %5 = getelementptr inbounds i8, ptr %4, i64 528
  %6 = load i32, ptr %5, align 8
  %7 = and i32 %6, 4
  %.not.i = icmp eq i32 %7, 0
  br i1 %.not.i, label %9, label %8

8:                                                ; preds = %2
  tail call void @log_message_begin(ptr noundef nonnull @.str.13, ptr noundef nonnull @.str.5, i32 noundef 179) #6
  tail call void (ptr, ...) @log_message_end(ptr noundef nonnull @.str.7, ptr noundef nonnull @.str.49) #6
  %.pre.i = load ptr, ptr @gdata, align 8
  br label %9

9:                                                ; preds = %8, %2
  %10 = phi ptr [ %4, %2 ], [ %.pre.i, %8 ]
  %11 = load ptr, ptr %10, align 8
  %12 = load ptr, ptr %11, align 8
  %13 = getelementptr inbounds i8, ptr %12, i64 808
  %14 = load ptr, ptr %13, align 8
  %15 = call i32 %14(ptr noundef nonnull %11, ptr noundef %1, ptr noundef nonnull %3) #6
  switch i32 %15, label %16 [
    i32 15, label %getThreadLocalStorage.exit.thread
    i32 0, label %getThreadLocalStorage.exit
  ]

getThreadLocalStorage.exit.thread:                ; preds = %9
  call void @llvm.lifetime.end.p0(i64 8, ptr nonnull %3)
  br label %21

16:                                               ; preds = %9
  %17 = load ptr, ptr @stderr, align 8
  %18 = call ptr @jvmtiErrorText(i32 noundef %15) #6
  call void (ptr, ptr, ptr, ptr, ...) @print_message(ptr noundef %17, ptr noundef nonnull @.str.1, ptr noundef nonnull @.str.2, ptr noundef nonnull @.str.3, ptr noundef %18, i32 noundef %15, ptr noundef nonnull @.str.50, ptr noundef nonnull @.str.5, i32 noundef 186) #6
  call void @debugInit_exit(i32 noundef %15, ptr noundef nonnull @.str.50) #6
  br label %getThreadLocalStorage.exit

getThreadLocalStorage.exit:                       ; preds = %9, %16
  %19 = load ptr, ptr %3, align 8
  call void @llvm.lifetime.end.p0(i64 8, ptr nonnull %3)
  %20 = icmp eq ptr %19, null
  br i1 %20, label %21, label %nonTlsSearch.exit69

21:                                               ; preds = %getThreadLocalStorage.exit.thread, %getThreadLocalStorage.exit
  %22 = icmp eq ptr %0, null
  %23 = icmp eq ptr %0, @otherThreads
  %or.cond = or i1 %22, %23
  br i1 %or.cond, label %24, label %nonTlsSearch.exit

24:                                               ; preds = %21
  %25 = call ptr @getEnv() #6
  %.08.i = load ptr, ptr @otherThreads, align 8
  %.not9.i = icmp eq ptr %.08.i, null
  br i1 %.not9.i, label %nonTlsSearch.exit, label %.lr.ph.i

.lr.ph.i:                                         ; preds = %24, %28
  %.010.i = phi ptr [ %.0.i41, %28 ], [ %.08.i, %24 ]
  %26 = load ptr, ptr %.010.i, align 8
  %27 = call zeroext i8 @isSameObject(ptr noundef %25, ptr noundef %26, ptr noundef %1) #6
  %.not7.i = icmp eq i8 %27, 0
  br i1 %.not7.i, label %28, label %nonTlsSearch.exit

28:                                               ; preds = %.lr.ph.i
  %29 = getelementptr inbounds i8, ptr %.010.i, i64 232
  %.0.i41 = load ptr, ptr %29, align 8
  %.not.i42 = icmp eq ptr %.0.i41, null
  br i1 %.not.i42, label %nonTlsSearch.exit, label %.lr.ph.i, !llvm.loop !10

nonTlsSearch.exit:                                ; preds = %28, %.lr.ph.i, %24, %21
  %.0 = phi ptr [ null, %21 ], [ null, %24 ], [ null, %28 ], [ %.010.i, %.lr.ph.i ]
  %30 = load ptr, ptr @gdata, align 8
  %31 = getelementptr inbounds i8, ptr %30, i64 577
  %32 = load volatile i8, ptr %31, align 1
  %.not = icmp eq i8 %32, 0
  br i1 %.not, label %33, label %52

33:                                               ; preds = %nonTlsSearch.exit
  %34 = getelementptr inbounds i8, ptr %30, i64 17
  %35 = load i8, ptr %34, align 1
  %.not35 = icmp eq i8 %35, 0
  br i1 %.not35, label %nonTlsSearch.exit51.thread, label %36

36:                                               ; preds = %33
  %37 = call ptr @getEnv() #6
  %.08.i43 = load ptr, ptr @runningThreads, align 8
  %.not9.i44 = icmp eq ptr %.08.i43, null
  br i1 %.not9.i44, label %nonTlsSearch.exit51.thread, label %.lr.ph.i45

.lr.ph.i45:                                       ; preds = %36, %40
  %.010.i46 = phi ptr [ %.0.i49, %40 ], [ %.08.i43, %36 ]
  %38 = load ptr, ptr %.010.i46, align 8
  %39 = call zeroext i8 @isSameObject(ptr noundef %37, ptr noundef %38, ptr noundef %1) #6
  %.not7.i47 = icmp eq i8 %39, 0
  br i1 %.not7.i47, label %40, label %nonTlsSearch.exit51

40:                                               ; preds = %.lr.ph.i45
  %41 = getelementptr inbounds i8, ptr %.010.i46, i64 232
  %.0.i49 = load ptr, ptr %41, align 8
  %.not.i50 = icmp eq ptr %.0.i49, null
  br i1 %.not.i50, label %nonTlsSearch.exit51.thread, label %.lr.ph.i45, !llvm.loop !10

nonTlsSearch.exit51:                              ; preds = %.lr.ph.i45
  call void @jdiAssertionFailed(ptr noundef nonnull @.str.5, i32 noundef 257, ptr noundef nonnull @.str.47) #6
  br label %nonTlsSearch.exit51.thread

nonTlsSearch.exit51.thread:                       ; preds = %40, %36, %nonTlsSearch.exit51, %33
  %42 = load ptr, ptr @gdata, align 8
  %.not37 = icmp eq ptr %42, null
  br i1 %.not37, label %nonTlsSearch.exit69, label %43

43:                                               ; preds = %nonTlsSearch.exit51.thread
  %44 = getelementptr inbounds i8, ptr %42, i64 17
  %45 = load i8, ptr %44, align 1
  %.not38 = icmp eq i8 %45, 0
  br i1 %.not38, label %nonTlsSearch.exit69, label %46

46:                                               ; preds = %43
  %47 = call ptr @getEnv() #6
  %.08.i52 = load ptr, ptr @runningVThreads, align 8
  %.not9.i53 = icmp eq ptr %.08.i52, null
  br i1 %.not9.i53, label %nonTlsSearch.exit69, label %.lr.ph.i54

.lr.ph.i54:                                       ; preds = %46, %50
  %.010.i55 = phi ptr [ %.0.i58, %50 ], [ %.08.i52, %46 ]
  %48 = load ptr, ptr %.010.i55, align 8
  %49 = call zeroext i8 @isSameObject(ptr noundef %47, ptr noundef %48, ptr noundef %1) #6
  %.not7.i56 = icmp eq i8 %49, 0
  br i1 %.not7.i56, label %50, label %nonTlsSearch.exit60

50:                                               ; preds = %.lr.ph.i54
  %51 = getelementptr inbounds i8, ptr %.010.i55, i64 232
  %.0.i58 = load ptr, ptr %51, align 8
  %.not.i59 = icmp eq ptr %.0.i58, null
  br i1 %.not.i59, label %nonTlsSearch.exit69, label %.lr.ph.i54, !llvm.loop !10

nonTlsSearch.exit60:                              ; preds = %.lr.ph.i54
  call void @jdiAssertionFailed(ptr noundef nonnull @.str.5, i32 noundef 258, ptr noundef nonnull @.str.48) #6
  br label %nonTlsSearch.exit69

52:                                               ; preds = %nonTlsSearch.exit
  %53 = icmp eq ptr %.0, null
  br i1 %53, label %54, label %nonTlsSearch.exit69

54:                                               ; preds = %52
  %55 = icmp eq ptr %0, @runningThreads
  %or.cond3 = or i1 %22, %55
  br i1 %or.cond3, label %56, label %.loopexit

56:                                               ; preds = %54
  %57 = call ptr @getEnv() #6
  %.08.i61 = load ptr, ptr @runningThreads, align 8
  %.not9.i62 = icmp eq ptr %.08.i61, null
  br i1 %.not9.i62, label %.loopexit, label %.lr.ph.i63

.lr.ph.i63:                                       ; preds = %56, %60
  %.010.i64 = phi ptr [ %.0.i67, %60 ], [ %.08.i61, %56 ]
  %58 = load ptr, ptr %.010.i64, align 8
  %59 = call zeroext i8 @isSameObject(ptr noundef %57, ptr noundef %58, ptr noundef %1) #6
  %.not7.i65 = icmp eq i8 %59, 0
  br i1 %.not7.i65, label %60, label %nonTlsSearch.exit69

60:                                               ; preds = %.lr.ph.i63
  %61 = getelementptr inbounds i8, ptr %.010.i64, i64 232
  %.0.i67 = load ptr, ptr %61, align 8
  %.not.i68 = icmp eq ptr %.0.i67, null
  br i1 %.not.i68, label %.loopexit, label %.lr.ph.i63, !llvm.loop !10

.loopexit:                                        ; preds = %60, %54, %56
  %62 = icmp eq ptr %0, @runningVThreads
  %or.cond5 = or i1 %22, %62
  br i1 %or.cond5, label %63, label %nonTlsSearch.exit69.thread76

63:                                               ; preds = %.loopexit
  %64 = call ptr @getEnv() #6
  %65 = call fastcc ptr @nonTlsSearch(ptr noundef %64, ptr noundef nonnull @runningVThreads, ptr noundef %1)
  br label %nonTlsSearch.exit69

nonTlsSearch.exit69:                              ; preds = %.lr.ph.i63, %50, %46, %nonTlsSearch.exit51.thread, %43, %nonTlsSearch.exit60, %63, %52, %getThreadLocalStorage.exit
  %.2 = phi ptr [ %65, %63 ], [ %.0, %52 ], [ %.0, %nonTlsSearch.exit60 ], [ %.0, %43 ], [ %.0, %nonTlsSearch.exit51.thread ], [ %19, %getThreadLocalStorage.exit ], [ %.0, %46 ], [ %.0, %50 ], [ %.010.i64, %.lr.ph.i63 ]
  %66 = icmp ne ptr %.2, null
  %67 = icmp ne ptr %0, null
  %or.cond7 = and i1 %67, %66
  br i1 %or.cond7, label %68, label %nonTlsSearch.exit69.thread76

68:                                               ; preds = %nonTlsSearch.exit69
  %69 = getelementptr inbounds i8, ptr %.2, i64 256
  %70 = load ptr, ptr %69, align 8
  %.not40 = icmp eq ptr %70, %0
  %spec.select = select i1 %.not40, ptr %.2, ptr null
  br label %nonTlsSearch.exit69.thread76

nonTlsSearch.exit69.thread76:                     ; preds = %68, %.loopexit, %nonTlsSearch.exit69
  %.028 = phi ptr [ %.2, %nonTlsSearch.exit69 ], [ null, %.loopexit ], [ %spec.select, %68 ]
  ret ptr %.028
}